; Function Attrs: mustprogress nofree norecurse nosync nounwind willreturn memory(read, inaccessiblemem: none) uwtable
define hidden noundef i32 @_ZN4cvc58internal6theory5arith6linear7TreeLog11numBranchesEj(ptr noundef nonnull readonly align 8 captures(none) dereferenceable(133) %0, i32 noundef %1) local_unnamed_addr #5 align 2 {
  %3 = zext i32 %1 to i64
  %4 = getelementptr inbounds nuw i8, ptr %0, i64 80
  %5 = getelementptr inbounds nuw i8, ptr %0, i64 88
  %6 = load ptr, ptr %5, align 8, !tbaa !175
  %7 = load ptr, ptr %4, align 8, !tbaa !173
  %8 = ptrtoint ptr %6 to i64
  %9 = ptrtoint ptr %7 to i64
  %10 = sub i64 %8, %9
  %11 = ashr exact i64 %10, 2
  %.not.i.i = icmp ugt i64 %11, %3
  br i1 %.not.i.i, label %_ZNK4cvc58internal8DenseMapIjE5isKeyEj.exit.i, label %_ZNK4cvc58internal13DenseMultiset5countEj.exit

_ZNK4cvc58internal8DenseMapIjE5isKeyEj.exit.i:    ; preds = %2
  %12 = getelementptr inbounds nuw i32, ptr %7, i64 %3
  %13 = load i32, ptr %12, align 4, !tbaa !13
  %.not.i = icmp eq i32 %13, -1
  br i1 %.not.i, label %_ZNK4cvc58internal13DenseMultiset5countEj.exit, label %14

14:                                               ; preds = %_ZNK4cvc58internal8DenseMapIjE5isKeyEj.exit.i
  %15 = getelementptr inbounds nuw i8, ptr %0, i64 104
  %16 = load ptr, ptr %15, align 8, !tbaa !173
  %17 = getelementptr inbounds nuw i32, ptr %16, i64 %3
  %18 = load i32, ptr %17, align 4, !tbaa !13
  br label %_ZNK4cvc58internal13DenseMultiset5countEj.exit

_ZNK4cvc58internal13DenseMultiset5countEj.exit:   ; preds = %2, %_ZNK4cvc58internal8DenseMapIjE5isKeyEj.exit.i, %14
  %.0.i = phi i32 [ %18, %14 ], [ 0, %_ZNK4cvc58internal8DenseMapIjE5isKeyEj.exit.i ], [ 0, %2 ]
  ret i32 %.0.i
}